; ModuleID = '40/1774.c'
source_filename = "40/1774.c"
target datalayout = "e-m:e-p270:32:32-p271:32:32-p272:64:64-i64:64-f80:128-n8:16:32:64-S128"
target triple = "x86_64-pc-linux-gnu"

@.str = private unnamed_addr constant [16 x i8] c"%lf%lf%lf%lf%lf\00", align 1
@.str.1 = private unnamed_addr constant [14 x i8] c"Invalid input\00", align 1
@.str.2 = private unnamed_addr constant [7 x i8] c"%.4lf\0A\00", align 1

; Function Attrs: noinline nounwind uwtable
define dso_local i32 @main(i32 %0, i8** %1) #0 {
  %3 = alloca i32, align 4
  %4 = alloca i32, align 4
  %5 = alloca i8**, align 8
  %6 = alloca double, align 8
  %7 = alloca double, align 8
  %8 = alloca double, align 8
  %9 = alloca double, align 8
  %10 = alloca double, align 8
  %11 = alloca double, align 8
  %12 = alloca double, align 8
  %13 = alloca double, align 8
  %14 = alloca double, align 8
  store i32 0, i32* %3, align 4
  store i32 %0, i32* %4, align 4
  store i8** %1, i8*** %5, align 8
  %15 = call i32 (i8*, ...) @__isoc99_scanf(i8* getelementptr inbounds ([16 x i8], [16 x i8]* @.str, i64 0, i64 0), double* %6, double* %7, double* %8, double* %9, double* %11)
  %16 = load double, double* %6, align 8
  %17 = load double, double* %7, align 8
  %18 = fadd double %16, %17
  %19 = load double, double* %8, align 8
  %20 = fadd double %18, %19
  %21 = load double, double* %9, align 8
  %22 = fadd double %20, %21
  %23 = fdiv double %22, 2.000000e+00
  store double %23, double* %13, align 8
  %24 = load double, double* %11, align 8
  %25 = fmul double %24, 1.000000e+02
  %26 = fdiv double %25, 1.800000e+02
  store double %26, double* %10, align 8
  %27 = load double, double* %10, align 8
  %28 = fdiv double %27, 2.000000e+00
  %29 = call double @cos(double %28) #3
  store double %29, double* %14, align 8
  %30 = load double, double* %13, align 8
  %31 = load double, double* %6, align 8
  %32 = fsub double %30, %31
  %33 = load double, double* %13, align 8
  %34 = load double, double* %7, align 8
  %35 = fsub double %33, %34
  %36 = fmul double %32, %35
  %37 = load double, double* %13, align 8
  %38 = load double, double* %8, align 8
  %39 = fsub double %37, %38
  %40 = fmul double %36, %39
  %41 = load double, double* %13, align 8
  %42 = load double, double* %9, align 8
  %43 = fsub double %41, %42
  %44 = fmul double %40, %43
  %45 = load double, double* %6, align 8
  %46 = load double, double* %7, align 8
  %47 = fmul double %45, %46
  %48 = load double, double* %8, align 8
  %49 = fmul double %47, %48
  %50 = load double, double* %9, align 8
  %51 = fmul double %49, %50
  %52 = load double, double* %14, align 8
  %53 = fmul double %51, %52
  %54 = load double, double* %14, align 8
  %55 = fmul double %53, %54
  %56 = fsub double %44, %55
  %57 = fcmp olt double %56, 0.000000e+00
  br i1 %57, label %58, label %60

58:                                               ; preds = %2
  %59 = call i32 (i8*, ...) @printf(i8* getelementptr inbounds ([14 x i8], [14 x i8]* @.str.1, i64 0, i64 0))
  br label %91

60:                                               ; preds = %2
  %61 = load double, double* %13, align 8
  %62 = load double, double* %6, align 8
  %63 = fsub double %61, %62
  %64 = load double, double* %13, align 8
  %65 = load double, double* %7, align 8
  %66 = fsub double %64, %65
  %67 = fmul double %63, %66
  %68 = load double, double* %13, align 8
  %69 = load double, double* %8, align 8
  %70 = fsub double %68, %69
  %71 = fmul double %67, %70
  %72 = load double, double* %13, align 8
  %73 = load double, double* %9, align 8
  %74 = fsub double %72, %73
  %75 = fmul double %71, %74
  %76 = load double, double* %6, align 8
  %77 = load double, double* %7, align 8
  %78 = fmul double %76, %77
  %79 = load double, double* %8, align 8
  %80 = fmul double %78, %79
  %81 = load double, double* %9, align 8
  %82 = fmul double %80, %81
  %83 = load double, double* %14, align 8
  %84 = fmul double %82, %83
  %85 = load double, double* %14, align 8
  %86 = fmul double %84, %85
  %87 = fsub double %75, %86
  %88 = call double @sqrt(double %87) #3
  store double %88, double* %12, align 8
  %89 = load double, double* %12, align 8
  %90 = call i32 (i8*, ...) @printf(i8* getelementptr inbounds ([7 x i8], [7 x i8]* @.str.2, i64 0, i64 0), double %89)
  br label %91

91:                                               ; preds = %60, %58
  ret i32 0
}

declare dso_local i32 @__isoc99_scanf(i8*, ...) #1

; Function Attrs: nounwind
declare dso_local double @cos(double) #2

declare dso_local i32 @printf(i8*, ...) #1

; Function Attrs: nounwind
declare dso_local double @sqrt(double) #2


!llvm.module.flags = !{!0}
!llvm.ident = !{!1}

!0 = !{i32 1, !"wchar_size", i32 4}
!1 = !{!"clang version 10.0.0-4ubuntu1 "}
